target datalayout = "e-m:e-p270:32:32-p271:32:32-p272:64:64-i64:64-i128:128-f80:128-n8:16:32:64-S128"
target triple = "x86_64-pc-linux-gnu"

; Function Attrs: nounwind uwtable
define void @ff_acelp_lsf2lspd(ptr noundef %0, ptr noundef %1, i32 noundef %2) #0 {
  %4 = alloca ptr, align 8
  %5 = alloca ptr, align 8
  %6 = alloca i32, align 4
  %7 = alloca i32, align 4
  store ptr %0, ptr %4, align 8, !tbaa !26
  store ptr %1, ptr %5, align 8, !tbaa !17
  store i32 %2, ptr %6, align 4, !tbaa !9
  call void @llvm.lifetime.start.p0(i64 4, ptr %7) #3
  store i32 0, ptr %7, align 4, !tbaa !9
  br label %8

8:                                                ; preds = %25, %3
  %9 = load i32, ptr %7, align 4, !tbaa !9
  %10 = load i32, ptr %6, align 4, !tbaa !9
  %11 = icmp slt i32 %9, %10
  br i1 %11, label %12, label %28

12:                                               ; preds = %8
  %13 = load ptr, ptr %5, align 8, !tbaa !17
  %14 = load i32, ptr %7, align 4, !tbaa !9
  %15 = sext i32 %14 to i64
  %16 = getelementptr inbounds float, ptr %13, i64 %15
  %17 = load float, ptr %16, align 4, !tbaa !21
  %18 = fpext nsz float %17 to double
  %19 = fmul nsz double 0x401921FB54442D18, %18
  %20 = call nsz double @llvm.cos.f64(double %19)
  %21 = load ptr, ptr %4, align 8, !tbaa !26
  %22 = load i32, ptr %7, align 4, !tbaa !9
  %23 = sext i32 %22 to i64
  %24 = getelementptr inbounds double, ptr %21, i64 %23
  store double %20, ptr %24, align 8, !tbaa !19
  br label %25

25:                                               ; preds = %12
  %26 = load i32, ptr %7, align 4, !tbaa !9
  %27 = add nsw i32 %26, 1
  store i32 %27, ptr %7, align 4, !tbaa !9
  br label %8, !llvm.loop !28

28:                                               ; preds = %8
  call void @llvm.lifetime.end.p0(i64 4, ptr %7) #3
  ret void
}